target datalayout = "e-m:e-p270:32:32-p271:32:32-p272:64:64-i64:64-i128:128-f80:128-n8:16:32:64-S128"
target triple = "x86_64-pc-linux-gnu"

%"class.icu_77::UnicodeString" = type { %"class.icu_77::Replaceable", %"union.icu_77::UnicodeString::StackBufferOrFields" }
%"class.icu_77::Replaceable" = type { %"class.icu_77::UObject" }
%"class.icu_77::UObject" = type { ptr }
%"union.icu_77::UnicodeString::StackBufferOrFields" = type { %struct.anon.0, [32 x i8] }
%struct.anon.0 = type { i16, i32, i32, ptr }

@_ZTVN6icu_777UObjectE = available_externally unnamed_addr constant { [5 x ptr] } { [5 x ptr] [ptr null, ptr @_ZTIN6icu_777UObjectE, ptr @_ZN6icu_777UObjectD1Ev, ptr @_ZN6icu_777UObjectD0Ev, ptr @_ZNK6icu_777UObject17getDynamicClassIDEv] }, align 8

; Function Attrs: inlinehint mustprogress nounwind uwtable
define linkonce_odr void @_ZN6icu_777UObjectC2Ev(ptr noundef nonnull align 8 dereferenceable(8) %0) unnamed_addr #1 comdat align 2 {
  %2 = alloca ptr, align 8
  store ptr %0, ptr %2, align 8, !tbaa !34
  %3 = load ptr, ptr %2, align 8
  store ptr getelementptr inbounds inrange(-16, 24) ({ [5 x ptr] }, ptr @_ZTVN6icu_777UObjectE, i32 0, i32 0, i32 2), ptr %3, align 8, !tbaa !10
  ret void
}

; Function Attrs: inlinehint mustprogress nounwind uwtable
define internal noundef signext i8 @_ZL9U_FAILURE10UErrorCode(i32 noundef %0) #1 {
  %2 = alloca i32, align 4
  store i32 %0, ptr %2, align 4, !tbaa !17
  %3 = load i32, ptr %2, align 4, !tbaa !17
  %4 = icmp sgt i32 %3, 0
  %5 = zext i1 %4 to i8
  ret i8 %5
}

; Function Attrs: inlinehint mustprogress nounwind uwtable
define internal noundef signext i8 @_ZL9U_SUCCESS10UErrorCode(i32 noundef %0) #1 {
  %2 = alloca i32, align 4
  store i32 %0, ptr %2, align 4, !tbaa !17
  %3 = load i32, ptr %2, align 4, !tbaa !17
  %4 = icmp sle i32 %3, 0
  %5 = zext i1 %4 to i8
  ret i8 %5
}

; Function Attrs: inlinehint mustprogress nounwind uwtable
define linkonce_odr void @_ZN6icu_7711ReplaceableC2Ev(ptr noundef nonnull align 8 dereferenceable(8) %0) unnamed_addr #1 comdat align 2 {
  %2 = alloca ptr, align 8
  store ptr %0, ptr %2, align 8, !tbaa !13
  %3 = load ptr, ptr %2, align 8
  call void @_ZN6icu_777UObjectC2Ev(ptr noundef nonnull align 8 dereferenceable(8) %3) #9
  store ptr getelementptr inbounds inrange(-16, 88) ({ [13 x ptr] }, ptr @_ZTVN6icu_7711ReplaceableE, i32 0, i32 0, i32 2), ptr %3, align 8, !tbaa !10
  ret void
}

; Function Attrs: mustprogress uwtable
define void @_ZN6icu_7713UnicodeStringC2EPKciP10UConverterR10UErrorCode(ptr noundef nonnull align 8 dereferenceable(64) %0, ptr noundef %1, i32 noundef %2, ptr noundef %3, ptr noundef nonnull align 4 dereferenceable(4) %4) unnamed_addr #0 align 2 personality ptr @__gxx_personality_v0 {
  %6 = alloca ptr, align 8
  %7 = alloca ptr, align 8
  %8 = alloca i32, align 4
  %9 = alloca ptr, align 8
  %10 = alloca ptr, align 8
  %11 = alloca ptr, align 8
  %12 = alloca i32, align 4
  store ptr %0, ptr %6, align 8, !tbaa !3
  store ptr %1, ptr %7, align 8, !tbaa !8
  store i32 %2, ptr %8, align 4, !tbaa !15
  store ptr %3, ptr %9, align 8, !tbaa !19
  store ptr %4, ptr %10, align 8, !tbaa !21
  %13 = load ptr, ptr %6, align 8
  call void @_ZN6icu_7711ReplaceableC2Ev(ptr noundef nonnull align 8 dereferenceable(8) %13)
  store ptr getelementptr inbounds inrange(-16, 88) ({ [13 x ptr] }, ptr @_ZTVN6icu_7713UnicodeStringE, i32 0, i32 0, i32 2), ptr %13, align 8, !tbaa !10
  %14 = getelementptr inbounds nuw %"class.icu_77::UnicodeString", ptr %13, i32 0, i32 1
  %15 = getelementptr inbounds nuw %struct.anon.0, ptr %14, i32 0, i32 0
  store i16 2, ptr %15, align 8, !tbaa !12
  %16 = load ptr, ptr %10, align 8, !tbaa !21
  %17 = load i32, ptr %16, align 4, !tbaa !17
  %18 = invoke noundef signext i8 @_ZL9U_SUCCESS10UErrorCode(i32 noundef %17)
          to label %19 unwind label %25

19:                                               ; preds = %5
  %20 = icmp ne i8 %18, 0
  br i1 %20, label %21, label %78

21:                                               ; preds = %19
  %22 = load ptr, ptr %7, align 8, !tbaa !8
  %23 = icmp eq ptr %22, null
  br i1 %23, label %24, label %29

24:                                               ; preds = %21
  br label %69

25:                                               ; preds = %75, %69, %63, %58, %55, %49, %47, %5
  %26 = landingpad { ptr, i32 }
          cleanup
  %27 = extractvalue { ptr, i32 } %26, 0
  store ptr %27, ptr %11, align 8
  %28 = extractvalue { ptr, i32 } %26, 1
  store i32 %28, ptr %12, align 4
  call void @_ZN6icu_7711ReplaceableD2Ev(ptr noundef nonnull align 8 dereferenceable(8) %13) #9
  br label %79

29:                                               ; preds = %21
  %30 = load i32, ptr %8, align 4, !tbaa !15
  %31 = icmp slt i32 %30, -1
  br i1 %31, label %32, label %34

32:                                               ; preds = %29
  %33 = load ptr, ptr %10, align 8, !tbaa !21
  store i32 1, ptr %33, align 4, !tbaa !17
  br label %68

34:                                               ; preds = %29
  %35 = load i32, ptr %8, align 4, !tbaa !15
  %36 = icmp eq i32 %35, -1
  br i1 %36, label %37, label %41

37:                                               ; preds = %34
  %38 = load ptr, ptr %7, align 8, !tbaa !8
  %39 = call i64 @strlen(ptr noundef %38) #8
  %40 = trunc i64 %39 to i32
  store i32 %40, ptr %8, align 4, !tbaa !15
  br label %41

41:                                               ; preds = %37, %34
  %42 = load i32, ptr %8, align 4, !tbaa !15
  %43 = icmp sgt i32 %42, 0
  br i1 %43, label %44, label %67

44:                                               ; preds = %41
  %45 = load ptr, ptr %9, align 8, !tbaa !19
  %46 = icmp ne ptr %45, null
  br i1 %46, label %47, label %55

47:                                               ; preds = %44
  %48 = load ptr, ptr %9, align 8, !tbaa !19
  invoke void @ucnv_resetToUnicode_77(ptr noundef %48)
          to label %49 unwind label %25

49:                                               ; preds = %47
  %50 = load ptr, ptr %7, align 8, !tbaa !8
  %51 = load i32, ptr %8, align 4, !tbaa !15
  %52 = load ptr, ptr %9, align 8, !tbaa !19
  %53 = load ptr, ptr %10, align 8, !tbaa !21
  invoke void @_ZN6icu_7713UnicodeString16doCodepageCreateEPKciP10UConverterR10UErrorCode(ptr noundef nonnull align 8 dereferenceable(64) %13, ptr noundef %50, i32 noundef %51, ptr noundef %52, ptr noundef nonnull align 4 dereferenceable(4) %53)
          to label %54 unwind label %25

54:                                               ; preds = %49
  br label %66

55:                                               ; preds = %44
  %56 = load ptr, ptr %10, align 8, !tbaa !21
  %57 = invoke ptr @u_getDefaultConverter_77(ptr noundef %56)
          to label %58 unwind label %25

58:                                               ; preds = %55
  store ptr %57, ptr %9, align 8, !tbaa !19
  %59 = load ptr, ptr %7, align 8, !tbaa !8
  %60 = load i32, ptr %8, align 4, !tbaa !15
  %61 = load ptr, ptr %9, align 8, !tbaa !19
  %62 = load ptr, ptr %10, align 8, !tbaa !21
  invoke void @_ZN6icu_7713UnicodeString16doCodepageCreateEPKciP10UConverterR10UErrorCode(ptr noundef nonnull align 8 dereferenceable(64) %13, ptr noundef %59, i32 noundef %60, ptr noundef %61, ptr noundef nonnull align 4 dereferenceable(4) %62)
          to label %63 unwind label %25

63:                                               ; preds = %58
  %64 = load ptr, ptr %9, align 8, !tbaa !19
  invoke void @u_releaseDefaultConverter_77(ptr noundef %64)
          to label %65 unwind label %25

65:                                               ; preds = %63
  br label %66

66:                                               ; preds = %65, %54
  br label %67

67:                                               ; preds = %66, %41
  br label %68

68:                                               ; preds = %67, %32
  br label %69

69:                                               ; preds = %68, %24
  %70 = load ptr, ptr %10, align 8, !tbaa !21
  %71 = load i32, ptr %70, align 4, !tbaa !17
  %72 = invoke noundef signext i8 @_ZL9U_FAILURE10UErrorCode(i32 noundef %71)
          to label %73 unwind label %25

73:                                               ; preds = %69
  %74 = icmp ne i8 %72, 0
  br i1 %74, label %75, label %77

75:                                               ; preds = %73
  invoke void @_ZN6icu_7713UnicodeString10setToBogusEv(ptr noundef nonnull align 8 dereferenceable(64) %13)
          to label %76 unwind label %25

76:                                               ; preds = %75
  br label %77

77:                                               ; preds = %76, %73
  br label %78

78:                                               ; preds = %77, %19
  ret void

79:                                               ; preds = %25
  %80 = load ptr, ptr %11, align 8
  %81 = load i32, ptr %12, align 4
  %82 = insertvalue { ptr, i32 } poison, ptr %80, 0
  %83 = insertvalue { ptr, i32 } %82, i32 %81, 1
  resume { ptr, i32 } %83
}