; Function Attrs: mustprogress uwtable
define void @_ZN6icu_7713UnicodeStringC2EPKciP10UConverterR10UErrorCode(ptr noundef nonnull align 8 dereferenceable(64) initializes((0, 10)) %0, ptr noundef %1, i32 noundef %2, ptr noundef %3, ptr noundef nonnull align 4 dereferenceable(4) %4) unnamed_addr #0 align 2 personality ptr @__gxx_personality_v0 {
  store ptr getelementptr inbounds nuw inrange(-16, 88) (i8, ptr @_ZTVN6icu_7713UnicodeStringE, i64 16), ptr %0, align 8, !tbaa !3
  %6 = getelementptr inbounds nuw i8, ptr %0, i64 8
  store i16 2, ptr %6, align 8, !tbaa !6
  %7 = load i32, ptr %4, align 4, !tbaa !8
  %8 = icmp sgt i32 %7, 0
  %9 = icmp eq ptr %1, null
  %or.cond = or i1 %8, %9
  br i1 %or.cond, label %.thread, label %12

10:                                               ; preds = %30, %27, %26, %24, %23, %22
  %11 = landingpad { ptr, i32 }
          cleanup
  tail call void @_ZN6icu_7711ReplaceableD2Ev(ptr noundef nonnull align 8 dereferenceable(8) %0) #7
  resume { ptr, i32 } %11

12:                                               ; preds = %5
  %13 = icmp slt i32 %2, -1
  br i1 %13, label %.thread27, label %14

.thread27:                                        ; preds = %12
  store i32 1, ptr %4, align 4, !tbaa !8
  br label %30

14:                                               ; preds = %12
  %15 = icmp eq i32 %2, -1
  br i1 %15, label %16, label %19

16:                                               ; preds = %14
  %17 = tail call i64 @strlen(ptr noundef nonnull dereferenceable(1) %1) #6
  %18 = trunc i64 %17 to i32
  br label %19

19:                                               ; preds = %16, %14
  %.0 = phi i32 [ %18, %16 ], [ %2, %14 ]
  %20 = icmp sgt i32 %.0, 0
  br i1 %20, label %21, label %28

21:                                               ; preds = %19
  %.not25 = icmp eq ptr %3, null
  br i1 %.not25, label %24, label %22

22:                                               ; preds = %21
  invoke void @ucnv_resetToUnicode_77(ptr noundef nonnull %3)
          to label %23 unwind label %10

23:                                               ; preds = %22
  invoke void @_ZN6icu_7713UnicodeString16doCodepageCreateEPKciP10UConverterR10UErrorCode(ptr noundef nonnull align 8 dereferenceable(64) %0, ptr noundef nonnull %1, i32 noundef %.0, ptr noundef nonnull %3, ptr noundef nonnull align 4 dereferenceable(4) %4)
          to label %28 unwind label %10

24:                                               ; preds = %21
  %25 = invoke ptr @u_getDefaultConverter_77(ptr noundef nonnull %4)
          to label %26 unwind label %10

26:                                               ; preds = %24
  invoke void @_ZN6icu_7713UnicodeString16doCodepageCreateEPKciP10UConverterR10UErrorCode(ptr noundef nonnull align 8 dereferenceable(64) %0, ptr noundef nonnull %1, i32 noundef %.0, ptr noundef %25, ptr noundef nonnull align 4 dereferenceable(4) %4)
          to label %27 unwind label %10

27:                                               ; preds = %26
  invoke void @u_releaseDefaultConverter_77(ptr noundef %25)
          to label %28 unwind label %10

28:                                               ; preds = %23, %27, %19
  %.pr = load i32, ptr %4, align 4, !tbaa !8
  %29 = icmp slt i32 %.pr, 1
  br i1 %29, label %.thread, label %30

30:                                               ; preds = %.thread27, %28
  invoke void @_ZN6icu_7713UnicodeString10setToBogusEv(ptr noundef nonnull align 8 dereferenceable(64) %0)
          to label %.thread unwind label %10

.thread:                                          ; preds = %28, %30, %5
  ret void
}